Certificate:
    Data:
        Version: 3 (0x2)
        Serial Number:
            f1:c6:1b:fa:36:cb:1a:23:77:a3:c6:6f:c0:09:2c:a3
        Signature Algorithm: sha256WithRSAEncryption
        Issuer: C=UA, ST=Ukraine, L=Kiev, O=Provectus, OU=AKM_Certificate_Authority, CN=AKM
        Validity
            Not Before: Oct  2 08:40:37 2017 GMT
            Not After : Oct  2 08:40:37 2019 GMT
        Subject: C=UA, ST=Ukraine, L=Kiev, O=Provectus, OU=akm_admin, CN=admin1
        Subject Public Key Info:
            Public Key Algorithm: rsaEncryption
            RSA Public Key: (2048 bit)
                Modulus (2048 bit):
                    00:b5:89:83:b3:a0:d0:da:78:01:54:66:99:84:72:
                    91:98:e7:82:43:fe:5d:89:8c:b5:d8:bc:87:27:f7:
                    77:4e:98:4b:f7:3c:16:ae:51:03:1b:9d:3a:89:74:
                    f8:8c:f8:79:6b:ce:3d:49:f3:6e:56:57:04:5b:66:
                    2a:de:77:2e:8c:8f:48:29:db:64:3e:18:18:ed:89:
                    fe:58:0a:95:bf:61:a4:1c:2d:3e:5c:89:09:f7:37:
                    3e:3c:eb:11:e9:40:d7:33:a0:4f:ff:08:e6:6e:82:
                    03:20:33:db:9a:c4:2e:19:29:d8:ef:f5:02:ef:d3:
                    4b:d7:0c:84:52:09:a2:c3:ef:4b:7d:61:63:71:f6:
                    22:d4:b7:c8:bb:53:a2:0e:98:3d:d4:81:74:cd:eb:
                    ce:24:f7:d4:86:bb:38:00:0b:5a:c0:d7:fd:61:6d:
                    98:2a:98:32:a7:62:dc:0c:36:e8:fe:6a:b2:fd:6f:
                    a2:83:c9:dd:15:9e:e7:f0:de:e9:56:77:09:08:8d:
                    36:92:4a:37:ea:41:e5:80:b9:b1:76:b7:2e:33:dc:
                    fa:f8:f8:64:c0:f0:5a:6f:52:11:e9:d3:f2:89:a4:
                    42:8a:b2:94:88:7f:69:bb:2c:2d:f4:76:3f:5b:ee:
                    ed:7a:1e:a5:de:30:d5:5d:cd:b0:59:83:29:a7:16:
                    e4:5f
                Exponent: 65537 (0x10001)
        X509v3 extensions:
            X509v3 Basic Constraints: 
                CA:FALSE
            X509v3 Subject Key Identifier: 
                E3:5F:93:50:9B:79:8E:48:70:7E:AF:E6:EF:D8:7C:B9:C4:E0:AD:E4
            X509v3 Authority Key Identifier: 
                keyid:71:1A:3F:E8:6D:C0:A9:06:12:4B:CD:23:6A:E5:0F:C5:B0:9E:B4:F9

    Signature Algorithm: sha256WithRSAEncryption
        98:b4:d1:5b:80:ee:07:81:8f:f3:4d:dc:cb:3d:bf:27:b3:3f:
        8a:23:10:b0:c9:b8:40:78:df:a4:fa:91:a2:a9:95:26:f8:04:
        39:09:06:9e:54:59:92:6d:a4:c7:12:12:22:98:70:5d:22:c2:
        e8:9f:79:10:03:cc:23:ae:71:2a:e1:b5:2a:d9:51:0f:70:91:
        f0:b9:e1:86:e8:51:7e:99:59:97:b2:f7:79:64:5b:eb:73:6d:
        79:04:25:ef:92:8a:8b:b3:2d:ff:f0:a9:ac:6b:dd:b9:a0:40:
        c1:64:da:3e:80:95:c0:ec:d8:8b:47:56:41:b7:3e:32:00:46:
        9d:08:dc:aa:27:47:3e:69:21:a7:78:20:44:89:ac:07:f5:e6:
        24:98:6e:0a:64:67:26:47:e0:4d:51:0c:19:06:88:0f:71:56:
        a4:9a:0c:e8:30:a9:bc:6d:64:64:df:07:15:9e:c1:9a:d0:36:
        6b:91:80:52:2d:be:ff:ff:47:98:eb:6f:63:5d:b0:8e:e8:79:
        ca:d4:8d:d3:f0:69:31:12:f9:dd:98:ba:eb:75:43:08:d1:36:
        c7:10:8e:2e:81:9f:59:2c:ba:22:5e:ec:b4:24:a7:a2:9b:db:
        06:2a:7d:bc:d5:7a:95:b9:57:82:af:56:b0:67:5b:61:bc:fd:
        52:5f:d6:0d
-----BEGIN CERTIFICATE-----
MIIDszCCApugAwIBAgIRAPHGG/o2yxojd6PGb8AJLKMwDQYJKoZIhvcNAQELBQAw
dDELMAkGA1UEBhMCVUExEDAOBgNVBAgTB1VrcmFpbmUxDTALBgNVBAcTBEtpZXYx
EjAQBgNVBAoTCVByb3ZlY3R1czEiMCAGA1UECxQZQUtNX0NlcnRpZmljYXRlX0F1
dGhvcml0eTEMMAoGA1UEAxMDQUtNMB4XDTE3MTAwMjA4NDAzN1oXDTE5MTAwMjA4
NDAzN1owZzELMAkGA1UEBhMCVUExEDAOBgNVBAgTB1VrcmFpbmUxDTALBgNVBAcT
BEtpZXYxEjAQBgNVBAoTCVByb3ZlY3R1czESMBAGA1UECxQJYWttX2FkbWluMQ8w
DQYDVQQDEwZhZG1pbjEwggEiMA0GCSqGSIb3DQEBAQUAA4IBDwAwggEKAoIBAQC1
iYOzoNDaeAFUZpmEcpGY54JD/l2JjLXYvIcn93dOmEv3PBauUQMbnTqJdPiM+Hlr
zj1J825WVwRbZiredy6Mj0gp22Q+GBjtif5YCpW/YaQcLT5ciQn3Nz486xHpQNcz
oE//COZuggMgM9uaxC4ZKdjv9QLv00vXDIRSCaLD70t9YWNx9iLUt8i7U6IOmD3U
gXTN684k99SGuzgAC1rA1/1hbZgqmDKnYtwMNuj+arL9b6KDyd0Vnufw3ulWdwkI
jTaSSjfqQeWAubF2ty4z3Pr4+GTA8FpvUhHp0/KJpEKKspSIf2m7LC30dj9b7u16
HqXeMNVdzbBZgymnFuRfAgMBAAGjTTBLMAkGA1UdEwQCMAAwHQYDVR0OBBYEFONf
k1CbeY5IcH6v5u/YfLnE4K3kMB8GA1UdIwQYMBaAFHEaP+htwKkGEkvNI2rlD8Ww
nrT5MA0GCSqGSIb3DQEBCwUAA4IBAQCYtNFbgO4HgY/zTdzLPb8nsz+KIxCwybhA
eN+k+pGiqZUm+AQ5CQaeVFmSbaTHEhIimHBdIsLon3kQA8wjrnEq4bUq2VEPcJHw
ueGG6FF+mVmXsvd5ZFvrc215BCXvkoqLsy3/8Kmsa925oEDBZNo+gJXA7NiLR1ZB
tz4yAEadCNyqJ0c+aSGneCBEiawH9eYkmG4KZGcmR+BNUQwZBogPcVakmgzoMKm8
bWRk3wcVnsGa0DZrkYBSLb7//0eY629jXbCO6HnK1I3T8GkxEvndmLrrdUMI0TbH
EI4ugZ9ZLLoiXuy0JKeim9sGKn281XqVuVeCr1awZ1thvP1SX9YN
-----END CERTIFICATE-----
