Certificate:
    Data:
        Version: 3 (0x2)
        Serial Number:
            1c:4e:66:9d:10:b5:f7:08:23:bf:08:0b:37:1d:06:e3
        Signature Algorithm: sha256WithRSAEncryption
        Issuer: C=UA, ST=Ukraine, L=Kiev, O=Provectus, OU=AKM_Certificate_Authority, CN=AKM
        Validity
            Not Before: Oct  2 08:40:32 2017 GMT
            Not After : Oct  2 08:40:32 2019 GMT
        Subject: C=UA, ST=Ukraine, L=Kiev, O=Provectus, OU=group, CN=user
        Subject Public Key Info:
            Public Key Algorithm: rsaEncryption
            RSA Public Key: (2048 bit)
                Modulus (2048 bit):
                    00:a5:cb:85:8a:e0:6a:02:8a:71:e5:95:b3:cd:b2:
                    1a:90:93:6f:42:f5:82:db:06:29:69:67:88:2a:8c:
                    38:ae:da:89:8a:38:60:62:14:5f:5d:0d:8e:19:a3:
                    af:f3:3a:49:c3:96:24:d0:f5:ca:9b:a4:15:36:6f:
                    39:6c:c9:af:04:bc:e0:d7:ea:c1:17:c4:68:1b:e0:
                    f4:66:a7:f3:ce:ee:03:21:3b:c7:11:ed:d6:70:75:
                    ca:d8:9a:86:6f:3f:42:2c:a8:7b:67:f1:07:28:ad:
                    e1:30:a3:2d:5e:a3:32:c2:b0:11:08:93:45:3b:bf:
                    e3:f1:04:36:27:c1:fe:50:78:ad:d6:3e:ea:e3:89:
                    f4:2b:87:4c:96:e7:cb:9a:65:ac:b8:f2:aa:80:97:
                    e9:57:d6:ec:44:a9:43:c1:17:4b:79:77:de:ee:17:
                    be:51:93:69:84:5a:15:27:63:96:14:06:70:a0:57:
                    a5:d9:e6:72:d1:82:3b:f6:61:f5:7b:33:08:e9:30:
                    02:a5:2d:87:2f:86:b4:e7:d3:ea:a0:75:c9:f2:73:
                    57:dd:8f:27:89:c1:59:5d:b6:17:92:34:57:23:9c:
                    db:e1:aa:d7:92:f0:4d:63:d7:47:04:02:bd:1a:65:
                    51:b7:31:31:b8:41:68:88:2d:ba:7d:94:ef:bd:0f:
                    42:d9
                Exponent: 65537 (0x10001)
        X509v3 extensions:
            X509v3 Basic Constraints: 
                CA:FALSE
            X509v3 Subject Key Identifier: 
                00:B1:41:18:9B:88:91:04:E3:EE:10:87:E9:6C:D3:8F:B4:D5:D5:68
            X509v3 Authority Key Identifier: 
                keyid:71:1A:3F:E8:6D:C0:A9:06:12:4B:CD:23:6A:E5:0F:C5:B0:9E:B4:F9

    Signature Algorithm: sha256WithRSAEncryption
        83:51:ec:b0:a9:df:c2:8f:f5:02:08:2c:9a:b5:ad:48:4e:76:
        5f:da:59:df:32:1d:f3:7b:86:75:1c:b3:90:81:55:84:49:90:
        c5:cb:27:02:af:08:5a:ee:eb:e3:c5:22:3c:d1:bf:d1:cc:22:
        25:84:64:43:80:f6:25:93:d7:61:33:eb:68:39:a3:0e:0e:07:
        d1:77:48:6b:56:d9:b4:14:77:64:d6:ba:71:01:8a:8f:3b:be:
        f0:28:42:9b:4e:03:c4:52:f4:9d:1e:4e:4f:ac:a5:50:c5:94:
        10:0d:8c:21:4b:0e:15:32:b6:9c:cc:de:d1:02:ae:c0:2f:f5:
        28:ad:96:29:eb:a7:0d:de:62:dd:74:0b:5d:4d:2d:60:12:14:
        6a:40:13:96:f3:ab:17:50:83:c7:ab:a5:e9:54:b2:b2:85:6e:
        94:b2:c5:82:0a:92:89:ff:80:7b:fd:01:13:ff:eb:26:f7:b6:
        48:64:4a:cf:92:b6:6a:e4:51:08:e0:98:9c:8b:12:b8:8f:7b:
        e3:99:37:a2:38:99:42:be:38:19:95:a6:67:42:55:a1:74:6b:
        e2:9b:50:2b:72:48:67:d6:9f:21:86:ac:37:bc:e2:9d:f7:8d:
        d0:2c:ca:1d:d3:f0:d7:10:d3:d6:3a:93:a5:ee:a3:da:9e:59:
        4b:21:1d:67
-----BEGIN CERTIFICATE-----
MIIDrDCCApSgAwIBAgIQHE5mnRC19wgjvwgLNx0G4zANBgkqhkiG9w0BAQsFADB0
MQswCQYDVQQGEwJVQTEQMA4GA1UECBMHVWtyYWluZTENMAsGA1UEBxMES2lldjES
MBAGA1UEChMJUHJvdmVjdHVzMSIwIAYDVQQLFBlBS01fQ2VydGlmaWNhdGVfQXV0
aG9yaXR5MQwwCgYDVQQDEwNBS00wHhcNMTcxMDAyMDg0MDMyWhcNMTkxMDAyMDg0
MDMyWjBhMQswCQYDVQQGEwJVQTEQMA4GA1UECBMHVWtyYWluZTENMAsGA1UEBxME
S2lldjESMBAGA1UEChMJUHJvdmVjdHVzMQ4wDAYDVQQLEwVncm91cDENMAsGA1UE
AxMEdXNlcjCCASIwDQYJKoZIhvcNAQEBBQADggEPADCCAQoCggEBAKXLhYrgagKK
ceWVs82yGpCTb0L1gtsGKWlniCqMOK7aiYo4YGIUX10Njhmjr/M6ScOWJND1ypuk
FTZvOWzJrwS84NfqwRfEaBvg9Gan887uAyE7xxHt1nB1ytiahm8/Qiyoe2fxByit
4TCjLV6jMsKwEQiTRTu/4/EENifB/lB4rdY+6uOJ9CuHTJbny5plrLjyqoCX6VfW
7ESpQ8EXS3l33u4XvlGTaYRaFSdjlhQGcKBXpdnmctGCO/Zh9XszCOkwAqUthy+G
tOfT6qB1yfJzV92PJ4nBWV22F5I0VyOc2+Gq15LwTWPXRwQCvRplUbcxMbhBaIgt
un2U770PQtkCAwEAAaNNMEswCQYDVR0TBAIwADAdBgNVHQ4EFgQUALFBGJuIkQTj
7hCH6WzTj7TV1WgwHwYDVR0jBBgwFoAUcRo/6G3AqQYSS80jauUPxbCetPkwDQYJ
KoZIhvcNAQELBQADggEBAINR7LCp38KP9QIILJq1rUhOdl/aWd8yHfN7hnUcs5CB
VYRJkMXLJwKvCFru6+PFIjzRv9HMIiWEZEOA9iWT12Ez62g5ow4OB9F3SGtW2bQU
d2TWunEBio87vvAoQptOA8RS9J0eTk+spVDFlBANjCFLDhUytpzM3tECrsAv9Sit
linrpw3eYt10C11NLWASFGpAE5bzqxdQg8erpelUsrKFbpSyxYIKkon/gHv9ARP/
6yb3tkhkSs+StmrkUQjgmJyLEriPe+OZN6I4mUK+OBmVpmdCVaF0a+KbUCtySGfW
nyGGrDe84p33jdAsyh3T8NcQ09Y6k6Xuo9qeWUshHWc=
-----END CERTIFICATE-----
