Certificate:
    Data:
        Version: 3 (0x2)
        Serial Number:
            12:ef:ac:3c:fe:10:e2:b1:5f:96:5d:be:90:0e:cd:88
        Signature Algorithm: sha256WithRSAEncryption
        Issuer: C=UA, ST=Ukraine, L=Kiev, O=Provectus, OU=AKM_Certificate_Authority, CN=akm1
        Validity
            Not Before: Jul 27 12:03:59 2017 GMT
            Not After : Jul 27 12:03:59 2019 GMT
        Subject: C=UA, ST=Ukraine, L=Kiev, O=Provectus, OU=group, CN=user
        Subject Public Key Info:
            Public Key Algorithm: rsaEncryption
            RSA Public Key: (2048 bit)
                Modulus (2048 bit):
                    00:d2:df:b6:1d:dd:6e:00:ea:40:62:da:b7:63:35:
                    28:8f:35:a2:45:e5:6b:58:51:9e:f1:38:3f:84:2f:
                    0b:ac:5f:fa:2c:e4:a8:38:ed:cb:57:7e:62:93:b0:
                    c6:7f:97:a6:fe:26:cb:92:a8:30:6d:80:05:6d:9c:
                    5a:8b:03:90:ec:19:ef:6e:09:67:4c:de:3f:f4:6f:
                    0f:22:2c:8e:1a:7b:25:ad:ce:72:ec:68:81:3a:11:
                    80:36:fa:71:c4:00:a1:25:67:76:18:0d:04:ed:23:
                    f2:f5:a8:8e:45:72:03:be:74:05:77:32:a2:d4:13:
                    71:60:29:23:c1:05:e6:1b:af:0b:76:3d:78:32:71:
                    21:d2:1f:a0:60:f5:cd:37:92:5b:8d:40:dd:0c:f3:
                    ee:a6:1f:ac:6f:19:c4:d2:f0:b5:89:b7:80:bf:ae:
                    4b:5e:a6:fc:16:49:a9:fb:ed:c7:45:74:33:a5:f8:
                    04:30:92:93:87:1a:ad:3c:73:82:07:44:8b:f8:ca:
                    9f:c7:d4:fc:90:9a:de:08:f1:0d:54:6a:aa:49:53:
                    fa:f4:a4:78:87:46:dd:4a:f2:41:5d:22:f7:98:d8:
                    e2:ed:82:19:d2:b9:72:91:c4:5d:4f:96:f1:bd:0a:
                    47:9d:c6:44:5e:47:97:14:16:a9:9e:d5:69:76:ea:
                    c0:bd
                Exponent: 65537 (0x10001)
        X509v3 extensions:
            X509v3 Basic Constraints: 
                CA:FALSE
            X509v3 Subject Key Identifier: 
                21:63:46:B9:20:81:2F:91:52:8A:15:77:56:3F:7F:6E:A3:CB:68:AC
            X509v3 Authority Key Identifier: 
                keyid:77:A1:0F:96:B8:6A:B8:BC:6C:DD:8A:74:1E:9D:8C:A2:0C:08:A2:EA

    Signature Algorithm: sha256WithRSAEncryption
        74:9c:9f:3e:07:a6:fb:70:d3:f5:5c:24:9a:41:d4:96:21:18:
        25:a6:ab:00:99:e9:62:85:3e:1a:c9:ee:9f:a0:f2:92:3b:97:
        1b:7c:ba:de:ba:26:30:23:ec:a3:cf:23:c9:3f:cd:a3:a0:43:
        6d:6f:22:2d:7f:c3:5d:96:64:4a:75:26:f7:36:c8:d4:b4:a1:
        9e:34:75:63:a4:91:c0:2a:ea:3e:ac:d5:3e:4c:06:bc:03:64:
        62:c0:23:87:4c:5e:24:cc:1d:9a:92:df:9a:63:48:5d:32:bc:
        1d:c5:ca:b0:a0:8f:e8:54:5d:e6:59:e5:6f:65:20:52:b1:4d:
        6e:fc:da:27:03:45:0d:51:c0:67:53:ee:dd:d3:5b:18:8c:51:
        df:7f:6e:e4:79:92:e9:bc:b6:50:5c:eb:21:a4:d4:aa:3d:3f:
        58:ea:c3:c7:11:8b:99:47:de:fe:2a:ed:b4:75:d3:11:de:52:
        64:8f:a5:30:6c:1f:70:66:64:71:e4:fe:c4:a5:b3:16:35:ab:
        b5:5d:89:14:c0:e2:3f:5e:a1:be:eb:13:e2:4e:e4:23:24:0a:
        75:fc:9f:dc:e1:b1:1a:b4:ba:d2:cc:8b:50:82:47:0a:19:a1:
        0a:37:10:7f:7c:58:62:12:b4:ab:d2:17:b4:5c:0f:ee:65:3e:
        5b:af:fb:9e
-----BEGIN CERTIFICATE-----
MIIDrTCCApWgAwIBAgIQEu+sPP4Q4rFfll2+kA7NiDANBgkqhkiG9w0BAQsFADB1
MQswCQYDVQQGEwJVQTEQMA4GA1UECBMHVWtyYWluZTENMAsGA1UEBxMES2lldjES
MBAGA1UEChMJUHJvdmVjdHVzMSIwIAYDVQQLFBlBS01fQ2VydGlmaWNhdGVfQXV0
aG9yaXR5MQ0wCwYDVQQDEwRha20xMB4XDTE3MDcyNzEyMDM1OVoXDTE5MDcyNzEy
MDM1OVowYTELMAkGA1UEBhMCVUExEDAOBgNVBAgTB1VrcmFpbmUxDTALBgNVBAcT
BEtpZXYxEjAQBgNVBAoTCVByb3ZlY3R1czEOMAwGA1UECxMFZ3JvdXAxDTALBgNV
BAMTBHVzZXIwggEiMA0GCSqGSIb3DQEBAQUAA4IBDwAwggEKAoIBAQDS37Yd3W4A
6kBi2rdjNSiPNaJF5WtYUZ7xOD+ELwusX/os5Kg47ctXfmKTsMZ/l6b+JsuSqDBt
gAVtnFqLA5DsGe9uCWdM3j/0bw8iLI4aeyWtznLsaIE6EYA2+nHEAKElZ3YYDQTt
I/L1qI5FcgO+dAV3MqLUE3FgKSPBBeYbrwt2PXgycSHSH6Bg9c03kluNQN0M8+6m
H6xvGcTS8LWJt4C/rktepvwWSan77cdFdDOl+AQwkpOHGq08c4IHRIv4yp/H1PyQ
mt4I8Q1UaqpJU/r0pHiHRt1K8kFdIveY2OLtghnSuXKRxF1PlvG9CkedxkReR5cU
Fqme1Wl26sC9AgMBAAGjTTBLMAkGA1UdEwQCMAAwHQYDVR0OBBYEFCFjRrkggS+R
UooVd1Y/f26jy2isMB8GA1UdIwQYMBaAFHehD5a4ari8bN2KdB6djKIMCKLqMA0G
CSqGSIb3DQEBCwUAA4IBAQB0nJ8+B6b7cNP1XCSaQdSWIRglpqsAmelihT4aye6f
oPKSO5cbfLreuiYwI+yjzyPJP82joENtbyItf8NdlmRKdSb3NsjUtKGeNHVjpJHA
Kuo+rNU+TAa8A2RiwCOHTF4kzB2akt+aY0hdMrwdxcqwoI/oVF3mWeVvZSBSsU1u
/NonA0UNUcBnU+7d01sYjFHff27keZLpvLZQXOshpNSqPT9Y6sPHEYuZR97+Ku20
ddMR3lJkj6UwbB9wZmRx5P7EpbMWNau1XYkUwOI/XqG+6xPiTuQjJAp1/J/c4bEa
tLrSzItQgkcKGaEKNxB/fFhiErSr0he0XA/uZT5br/ue
-----END CERTIFICATE-----
